; Function Attrs: mustprogress uwtable
define void @_ZN5draco37SequentialAttributeEncodersControllerC2ESt10unique_ptrINS_15PointsSequencerESt14default_deleteIS2_EE(ptr noundef nonnull align 8 dereferenceable(168) %0, ptr noundef captures(none) %1) unnamed_addr #3 align 2 personality ptr @__gxx_personality_v0 {
  tail call void @_ZN5draco17AttributesEncoderC2Ev(ptr noundef nonnull align 8 dereferenceable(72) %0)
  store ptr getelementptr inbounds nuw inrange(-16, 120) (i8, ptr @_ZTVN5draco37SequentialAttributeEncodersControllerE, i64 16), ptr %0, align 8, !tbaa !3
  %3 = getelementptr inbounds nuw i8, ptr %0, i64 72
  %4 = getelementptr inbounds nuw i8, ptr %0, i64 112
  store ptr null, ptr %4, align 8, !tbaa !6
  %5 = getelementptr inbounds nuw i8, ptr %0, i64 120
  store i32 0, ptr %5, align 8, !tbaa !12
  %6 = getelementptr inbounds nuw i8, ptr %0, i64 128
  %7 = getelementptr inbounds nuw i8, ptr %0, i64 160
  tail call void @llvm.memset.p0.i64(ptr noundef nonnull align 8 dereferenceable(36) %3, i8 0, i64 36, i1 false)
  tail call void @llvm.memset.p0.i64(ptr noundef nonnull align 8 dereferenceable(32) %6, i8 0, i64 32, i1 false)
  %8 = load i64, ptr %1, align 8, !tbaa !13
  store i64 %8, ptr %7, align 8, !tbaa !13
  store ptr null, ptr %1, align 8, !tbaa !13
  ret void
}